(dp0
S'avg_unpaid'
p1
cnumpy.core.multiarray
scalar
p2
(cnumpy
dtype
p3
(S'f8'
p4
I0
I1
tp5
Rp6
(I3
S'<'
p7
NNNI-1
I-1
I0
tp8
bS'O\xec\xc4N\xecD!@'
p9
tp10
Rp11
sS'num_co'
p12
I945
sS'num_ind'
p13
I43
sS'avg_paid'
p14
g2
(g6
S'\xcf<l\xb6D# @'
p15
tp16
Rp17
s.